; Function Attrs: nounwind uwtable
define internal i32 @opt_streamid(ptr noundef %0, ptr noundef %1, ptr noundef %2) #0 {
  %4 = alloca [16 x i8], align 16
  call void @llvm.lifetime.start.p0(i64 16, ptr nonnull %4) #15
  %5 = call i64 @av_strlcpy(ptr noundef nonnull %4, ptr noundef %2, i64 noundef 16) #15
  %6 = call ptr @strchr(ptr noundef nonnull dereferenceable(1) %4, i32 noundef 58) #17
  %.not = icmp eq ptr %6, null
  br i1 %.not, label %7, label %8

7:                                                ; preds = %3
  call void (ptr, i32, ptr, ...) @av_log(ptr noundef null, i32 noundef 8, ptr noundef nonnull @.str.622, ptr noundef %2, ptr noundef %1) #15
  br label %12

8:                                                ; preds = %3
  %9 = getelementptr inbounds nuw i8, ptr %6, i64 1
  store i8 0, ptr %6, align 1, !tbaa !19
  %10 = getelementptr inbounds nuw i8, ptr %0, i64 664
  %11 = call i32 @av_dict_set(ptr noundef nonnull %10, ptr noundef nonnull %4, ptr noundef nonnull %9, i32 noundef 0) #15
  br label %12

12:                                               ; preds = %8, %7
  %.0 = phi i32 [ %11, %8 ], [ -22, %7 ]
  call void @llvm.lifetime.end.p0(i64 16, ptr nonnull %4) #15
  ret i32 %.0
}